(dp1
S'a'
(lp2
(lp3
S'i'
aF0.12172573189522343
aa(lp4
S'r'
aF0.23266563944530047
aa(lp5
S's'
aF0.32973805855161786
aa(lp6
S'e'
aF0.42372881355932202
aa(lp7
S'n'
aF0.51617873651771951
aa(lp8
S'l'
aF0.5901386748844375
aa(lp9
S'u'
aF0.6563944530046224
aa(lp10
S't'
aF0.71494607087827422
aa(lp11
S'f'
aF0.74884437596302
aa(lp12
S'a'
aF0.78120184899845913
aa(lp13
S'c'
aF0.81201848998459158
aa(lp14
S'm'
aF0.84283513097072404
aa(lp15
S'w'
aF0.8628659476117102
aa(lp16
S'h'
aF0.8813559322033897
aa(lp17
S'k'
aF0.89676425269645599
aa(lp18
S'z'
aF0.91217257318952227
aa(lp19
S'j'
aF0.9260400616332819
aa(lp20
S'x'
aF0.93836671802773486
aa(lp21
S'b'
aF0.94915254237288127
aa(lp22
S'g'
aF0.95993836671802768
aa(lp23
S'v'
aF0.97072419106317409
aa(lp24
S'y'
aF0.9815100154083205
aa(lp25
S'd'
aF0.99075500770416025
aa(lp26
S'p'
aF1
aasS'c'
(lp27
(lp28
S'k'
aF0.40140845070422537
aa(lp29
S'h'
aF0.61267605633802824
aa(lp30
S'l'
aF0.8098591549295775
aa(lp31
S'a'
aF0.86619718309859162
aa(lp32
S'e'
aF0.91549295774647899
aa(lp33
S'i'
aF0.96478873239436636
aa(lp34
S'o'
aF0.99295774647887336
aa(lp35
S'u'
aF1.0000000000000002
aasS'b'
(lp36
(lp37
S'e'
aF0.42105263157894735
aa(lp38
S'a'
aF0.73684210526315785
aa(lp39
S'o'
aF0.84210526315789469
aa(lp40
S'u'
aF0.92105263157894735
aa(lp41
S'i'
aF1
aasS'e'
(lp42
(lp43
S's'
aF0.16813048933500627
aa(lp44
S'r'
aF0.28607277289836885
aa(lp45
S'n'
aF0.39146800501882056
aa(lp46
S'l'
aF0.48055207026348806
aa(lp47
S't'
aF0.56712672521957341
aa(lp48
S'a'
aF0.63989962358845676
aa(lp49
S'i'
aF0.68757841907151829
aa(lp50
S'm'
aF0.73525721455457982
aa(lp51
S'f'
aF0.78042659974905915
aa(lp52
S'c'
aF0.81053952321204537
aa(lp53
S'u'
aF0.83688833124215833
aa(lp54
S'v'
aF0.85947302383939794
aa(lp55
S'd'
aF0.8808030112923465
aa(lp56
S'y'
aF0.89962358845671286
aa(lp57
S'b'
aF0.91342534504391493
aa(lp58
S'g'
aF0.92722710163111688
aa(lp59
S'p'
aF0.93977415307402778
aa(lp60
S'w'
aF0.95232120451693869
aa(lp61
S'k'
aF0.96235884567126739
aa(lp62
S'j'
aF0.9723964868255961
aa(lp63
S'x'
aF0.9824341279799248
aa(lp64
S'h'
aF0.99121706398996245
aa(lp65
S'z'
aF1
aasS'd'
(lp66
(lp67
S'r'
aF0.33962264150943394
aa(lp68
S'e'
aF0.62264150943396224
aa(lp69
S'a'
aF0.84905660377358494
aa(lp70
S'u'
aF0.92452830188679247
aa(lp71
S'o'
aF1
aasS'g'
(lp72
(lp73
S'e'
aF0.44791666666666669
aa(lp74
S'a'
aF0.61458333333333337
aa(lp75
S'u'
aF0.76041666666666674
aa(lp76
S'i'
aF0.90625000000000011
aa(lp77
S'o'
aF1
aasS'f'
(lp78
(lp79
S'e'
aF0.32142857142857145
aa(lp80
S'a'
aF0.625
aa(lp81
S'o'
aF0.8214285714285714
aa(lp82
S'i'
aF0.92857142857142849
aa(lp83
S'u'
aF0.99999999999999989
aasS'i'
(lp84
(lp85
S'a'
aF0.14241486068111456
aa(lp86
S'e'
aF0.28482972136222912
aa(lp87
S's'
aF0.41795665634674928
aa(lp88
S'r'
aF0.52012383900928794
aa(lp89
S'n'
aF0.61300309597523217
aa(lp90
S'l'
aF0.69659442724458198
aa(lp91
S't'
aF0.77089783281733737
aa(lp92
S'm'
aF0.82043343653250767
aa(lp93
S'c'
aF0.85139318885448911
aa(lp94
S'f'
aF0.88235294117647056
aa(lp95
S'g'
aF0.90402476780185759
aa(lp96
S'b'
aF0.91950464396284826
aa(lp97
S'k'
aF0.93188854489164086
aa(lp98
S'v'
aF0.94427244582043346
aa(lp99
S'y'
aF0.95665634674922606
aa(lp100
S'h'
aF0.96594427244582048
aa(lp101
S'p'
aF0.97523219814241491
aa(lp102
S'x'
aF0.98452012383900933
aa(lp103
S'd'
aF0.99071207430340558
aa(lp104
S'j'
aF0.99380804953560375
aa(lp105
S'w'
aF0.99690402476780193
aa(lp106
S'z'
aF1
aasS'h'
(lp107
(lp108
S'e'
aF0.42073170731707316
aa(lp109
S'a'
aF0.61585365853658536
aa(lp110
S'i'
aF0.75609756097560976
aa(lp111
S'o'
aF0.8902439024390244
aa(lp112
S'u'
aF1
aasS'k'
(lp113
(lp114
S'n'
aF0.23333333333333334
aa(lp115
S'r'
aF0.44
aa(lp116
S'e'
aF0.61333333333333329
aa(lp117
S'l'
aF0.76666666666666661
aa(lp118
S'o'
aF0.83999999999999997
aa(lp119
S'a'
aF0.89999999999999991
aa(lp120
S'i'
aF0.95333333333333325
aa(lp121
S'u'
aF0.99999999999999989
aasS'j'
(lp122
(lp123
S'e'
aF0.4642857142857143
aa(lp124
S'a'
aF0.6785714285714286
aa(lp125
S'u'
aF0.7857142857142857
aa(lp126
S'i'
aF0.89285714285714279
aa(lp127
S'o'
aF0.99999999999999989
aasS'm'
(lp128
(lp129
S'n'
aF0.58399999999999996
aa(lp130
S'e'
aF0.752
aa(lp131
S'a'
aF0.91200000000000003
aa(lp132
S'u'
aF0.95200000000000007
aa(lp133
S'i'
aF0.97600000000000009
aa(lp134
S'o'
aF1
aasS'l'
(lp135
(lp136
S'e'
aF0.33920704845814981
aa(lp137
S'a'
aF0.64317180616740088
aa(lp138
S'o'
aF0.80176211453744495
aa(lp139
S'u'
aF0.91189427312775329
aa(lp140
S'i'
aF1
aasS'o'
(lp141
(lp142
S'u'
aF0.20155038759689922
aa(lp143
S'e'
aF0.33850129198966405
aa(lp144
S's'
aF0.44444444444444442
aa(lp145
S'r'
aF0.54521963824289399
aa(lp146
S'o'
aF0.62790697674418594
aa(lp147
S'n'
aF0.70025839793281641
aa(lp148
S't'
aF0.75968992248062006
aa(lp149
S'c'
aF0.80620155038759678
aa(lp150
S'l'
aF0.84237726098191201
aa(lp151
S'm'
aF0.87338501291989656
aa(lp152
S'f'
aF0.89922480620155032
aa(lp153
S'd'
aF0.9147286821705426
aa(lp154
S'k'
aF0.93023255813953487
aa(lp155
S'p'
aF0.94056847545219635
aa(lp156
S'w'
aF0.95090439276485783
aa(lp157
S'v'
aF0.96124031007751931
aa(lp158
S'z'
aF0.97157622739018079
aa(lp159
S'x'
aF0.97932816537467693
aa(lp160
S'b'
aF0.98449612403100772
aa(lp161
S'g'
aF0.98966408268733852
aa(lp162
S'h'
aF0.99483204134366932
aa(lp163
S'y'
aF1
aasS'n'
(lp164
(lp165
S'e'
aF0.22543352601156069
aa(lp166
S't'
aF0.42485549132947975
aa(lp167
S'g'
aF0.61271676300578037
aa(lp168
S'a'
aF0.76011560693641622
aa(lp169
S'o'
aF0.86705202312138729
aa(lp170
S'i'
aF0.94219653179190754
aa(lp171
S'u'
aF1
aasS'p'
(lp172
(lp173
S'l'
aF0.30882352941176472
aa(lp174
S'r'
aF0.60294117647058831
aa(lp175
S'e'
aF0.75000000000000011
aa(lp176
S'a'
aF0.86764705882352955
aa(lp177
S'o'
aF0.92647058823529427
aa(lp178
S'u'
aF0.98529411764705899
aa(lp179
S'i'
aF1.0000000000000002
aasS's'
(lp180
(lp181
S'h'
aF0.22384428223844283
aa(lp182
S't'
aF0.40389294403892945
aa(lp183
S'e'
aF0.57664233576642343
aa(lp184
S's'
aF0.74209245742092467
aa(lp185
S'a'
aF0.84914841849148426
aa(lp186
S'm'
aF0.89051094890510951
aa(lp187
S'o'
aF0.93187347931873477
aa(lp188
S'u'
aF0.97080291970802912
aa(lp189
S'i'
aF0.99999999999999989
aasS'r'
(lp190
(lp191
S't'
aF0.28498727735368956
aa(lp192
S'e'
aF0.48346055979643765
aa(lp193
S'a'
aF0.64376590330788797
aa(lp194
S'g'
aF0.78117048346055973
aa(lp195
S'i'
aF0.85750636132315516
aa(lp196
S'o'
aF0.9338422391857506
aa(lp197
S'u'
aF1
aasS'u'
(lp198
(lp199
S'r'
aF0.14168937329700274
aa(lp200
S'o'
aF0.26430517711171664
aa(lp201
S's'
aF0.38692098092643057
aa(lp202
S'e'
aF0.50136239782016356
aa(lp203
S'n'
aF0.60762942779291562
aa(lp204
S't'
aF0.67574931880109002
aa(lp205
S'm'
aF0.73569482288828347
aa(lp206
S'l'
aF0.78746594005449599
aa(lp207
S'f'
aF0.82016348773841974
aa(lp208
S'x'
aF0.84468664850136255
aa(lp209
S'c'
aF0.86648501362397834
aa(lp210
S'y'
aF0.88555858310626712
aa(lp211
S'b'
aF0.90190735694822899
aa(lp212
S'g'
aF0.91825613079019086
aa(lp213
S'd'
aF0.93188010899182572
aa(lp214
S'w'
aF0.94550408719346057
aa(lp215
S'v'
aF0.95912806539509543
aa(lp216
S'j'
aF0.97002724795640338
aa(lp217
S'z'
aF0.98092643051771133
aa(lp218
S'p'
aF0.98910081743869227
aa(lp219
S'h'
aF0.99455040871934619
aa(lp220
S'k'
aF1.0000000000000002
aasS't'
(lp221
(lp222
S'e'
aF0.30927835051546393
aa(lp223
S'h'
aF0.53865979381443296
aa(lp224
S'a'
aF0.72164948453608246
aa(lp225
S'o'
aF0.80412371134020622
aa(lp226
S'i'
aF0.87886597938144329
aa(lp227
S'u'
aF0.94072164948453607
aa(lp228
S'r'
aF1
aasS'w'
(lp229
(lp230
S'e'
aF0.40000000000000002
aa(lp231
S'o'
aF0.60000000000000009
aa(lp232
S'a'
aF0.77500000000000013
aa(lp233
S'u'
aF0.90000000000000013
aa(lp234
S'i'
aF1.0000000000000002
aasS'v'
(lp235
(lp236
S'e'
aF0.45238095238095238
aa(lp237
S'a'
aF0.64285714285714279
aa(lp238
S'i'
aF0.80952380952380942
aa(lp239
S'o'
aF0.92857142857142849
aa(lp240
S'u'
aF0.99999999999999989
aasS'y'
(lp241
(lp242
S'e'
aF0.47222222222222221
aa(lp243
S'a'
aF0.86111111111111116
aa(lp244
S'i'
aF0.94444444444444453
aa(lp245
S'o'
aF1
aasS'x'
(lp246
(lp247
S'e'
aF0.37142857142857144
aa(lp248
S'a'
aF0.65714285714285714
aa(lp249
S'u'
aF0.82857142857142851
aa(lp250
S'i'
aF0.94285714285714284
aa(lp251
S'o'
aF1
aasS'z'
(lp252
(lp253
S'e'
aF0.33333333333333331
aa(lp254
S'a'
aF0.6333333333333333
aa(lp255
S'o'
aF0.8666666666666667
aa(lp256
S'u'
aF0.93333333333333335
aa(lp257
S'i'
aF1
aas.